target datalayout = "e-m:e-p270:32:32-p271:32:32-p272:64:64-i64:64-i128:128-f80:128-n8:16:32:64-S128"
target triple = "x86_64-pc-linux-gnu"

%class.LogTagSet = type { ptr, i64, [5 x i32], [4 x i8], %class.LogOutputList, %class.LogDecorators, ptr }
%class.LogOutputList = type <{ [6 x ptr], i32, [4 x i8] }>
%class.LogDecorators = type { i32 }
%class.elapsedTimer = type <{ i64, i64, i8, [7 x i8] }>
%class.HandleMark = type { ptr, ptr, ptr, ptr, ptr, i64, ptr }
%class.TraceTime = type { i8, i8, [6 x i8], %class.elapsedTimer, ptr, ptr, ptr }

@.str.9 = private unnamed_addr constant [16 x i8] c"IterateOverHeap\00", align 1
@_ZN16LogTagSetMappingILN6LogTag4typeE69ELS1_98ELS1_0ELS1_0ELS1_0ELS1_0EE7_tagsetE = linkonce_odr hidden global %class.LogTagSet zeroinitializer, comdat, align 8
@_ZN6Thread12_thr_currentE = external thread_local global ptr, align 8

; Function Attrs: mustprogress nounwind uwtable
define linkonce_odr hidden noundef zeroext i1 @_ZNK13LogOutputList8is_levelEN8LogLevel4typeE(ptr noundef nonnull align 8 dereferenceable(52) %0, i32 noundef %1) #1 comdat align 2 {
  %3 = alloca ptr, align 8
  %4 = alloca i32, align 4
  store ptr %0, ptr %3, align 8
  store i32 %1, ptr %4, align 4
  %5 = load ptr, ptr %3, align 8
  %6 = getelementptr inbounds %class.LogOutputList, ptr %5, i32 0, i32 0
  %7 = load i32, ptr %4, align 4
  %8 = zext i32 %7 to i64
  %9 = getelementptr inbounds [6 x ptr], ptr %6, i64 0, i64 %8
  %10 = load volatile ptr, ptr %9, align 8
  %11 = icmp ne ptr %10, null
  ret i1 %11
}

; Function Attrs: mustprogress nounwind uwtable
define linkonce_odr hidden noundef ptr @_ZN6Thread15current_or_nullEv() #1 comdat align 2 {
  %1 = call align 8 ptr @llvm.threadlocal.address.p0(ptr align 8 @_ZN6Thread12_thr_currentE)
  %2 = load ptr, ptr %1, align 8
  ret ptr %2
}

; Function Attrs: mustprogress nounwind uwtable
define linkonce_odr hidden noundef zeroext i1 @_ZNK9LogTagSet8is_levelEN8LogLevel4typeE(ptr noundef nonnull align 8 dereferenceable(112) %0, i32 noundef %1) #1 comdat align 2 {
  %3 = alloca ptr, align 8
  %4 = alloca i32, align 4
  store ptr %0, ptr %3, align 8
  store i32 %1, ptr %4, align 4
  %5 = load ptr, ptr %3, align 8
  %6 = getelementptr inbounds %class.LogTagSet, ptr %5, i32 0, i32 4
  %7 = load i32, ptr %4, align 4
  %8 = call noundef zeroext i1 @_ZNK13LogOutputList8is_levelEN8LogLevel4typeE(ptr noundef nonnull align 8 dereferenceable(52) %6, i32 noundef %7)
  ret i1 %8
}

; Function Attrs: mustprogress nounwind uwtable
define linkonce_odr hidden noundef nonnull align 8 dereferenceable(112) ptr @_ZN16LogTagSetMappingILN6LogTag4typeE69ELS1_98ELS1_0ELS1_0ELS1_0ELS1_0EE6tagsetEv() #1 comdat align 2 {
  ret ptr @_ZN16LogTagSetMappingILN6LogTag4typeE69ELS1_98ELS1_0ELS1_0ELS1_0ELS1_0EE7_tagsetE
}

; Function Attrs: mustprogress nounwind uwtable
define linkonce_odr hidden void @_ZN10HandleMarkC2EP6Thread(ptr noundef nonnull align 8 dereferenceable(56) %0, ptr noundef %1) unnamed_addr #1 comdat align 2 {
  %3 = alloca ptr, align 8
  %4 = alloca ptr, align 8
  store ptr %0, ptr %3, align 8
  store ptr %1, ptr %4, align 8
  %5 = load ptr, ptr %3, align 8
  %6 = load ptr, ptr %4, align 8
  call void @_ZN10HandleMark10initializeEP6Thread(ptr noundef nonnull align 8 dereferenceable(56) %5, ptr noundef %6)
  ret void
}

; Function Attrs: mustprogress nounwind uwtable
define linkonce_odr hidden noundef ptr @_ZN6Thread7currentEv() #1 comdat align 2 {
  %1 = alloca ptr, align 8
  %2 = call noundef ptr @_ZN6Thread15current_or_nullEv()
  store ptr %2, ptr %1, align 8
  %3 = load ptr, ptr %1, align 8
  ret ptr %3
}

; Function Attrs: mustprogress nounwind uwtable
define linkonce_odr hidden noundef zeroext i1 @_ZN7LogImplILN6LogTag4typeE69ELS1_98ELS1_0ELS1_0ELS1_0ELS1_0EE8is_levelEN8LogLevel4typeE(i32 noundef %0) #1 comdat align 2 {
  %2 = alloca i32, align 4
  store i32 %0, ptr %2, align 4
  %3 = call noundef nonnull align 8 dereferenceable(112) ptr @_ZN16LogTagSetMappingILN6LogTag4typeE69ELS1_98ELS1_0ELS1_0ELS1_0ELS1_0EE6tagsetEv()
  %4 = load i32, ptr %2, align 4
  %5 = call noundef zeroext i1 @_ZNK9LogTagSet8is_levelEN8LogLevel4typeE(ptr noundef nonnull align 8 dereferenceable(112) %3, i32 noundef %4)
  ret i1 %5
}

; Function Attrs: mustprogress nounwind uwtable
define hidden noundef i32 @_ZN8JvmtiEnv15IterateOverHeapE21jvmtiHeapObjectFilterPF21jvmtiIterationControlllPlPvEPKv(ptr noundef nonnull align 8 dereferenceable(460) %0, i32 noundef %1, ptr noundef %2, ptr noundef %3) #1 align 2 {
  %5 = alloca ptr, align 8
  %6 = alloca i32, align 4
  %7 = alloca ptr, align 8
  %8 = alloca ptr, align 8
  %9 = alloca %class.TraceTime, align 8
  %10 = alloca ptr, align 8
  %11 = alloca %class.HandleMark, align 8
  store ptr %0, ptr %5, align 8
  store i32 %1, ptr %6, align 4
  store ptr %2, ptr %7, align 8
  store ptr %3, ptr %8, align 8
  %12 = load ptr, ptr %5, align 8
  %13 = call noundef zeroext i1 @_ZN7LogImplILN6LogTag4typeE69ELS1_98ELS1_0ELS1_0ELS1_0ELS1_0EE8is_levelEN8LogLevel4typeE(i32 noundef 2)
  %14 = select i1 %13, ptr @_ZN7LogImplILN6LogTag4typeE69ELS1_98ELS1_0ELS1_0ELS1_0ELS1_0EE5writeILN8LogLevel4typeE2EEEvPKcz, ptr null
  call void @_ZN9TraceTimeC1EPKcPFvS1_zE(ptr noundef nonnull align 8 dereferenceable(56) %9, ptr noundef @.str.9, ptr noundef %14)
  %15 = call noundef ptr @_ZN6Thread7currentEv()
  store ptr %15, ptr %10, align 8
  %16 = load ptr, ptr %10, align 8
  call void @_ZN10HandleMarkC2EP6Thread(ptr noundef nonnull align 8 dereferenceable(56) %11, ptr noundef %16)
  %17 = call noundef ptr @_ZN11JvmtiTagMap11tag_map_forEP8JvmtiEnv(ptr noundef %12)
  %18 = load i32, ptr %6, align 4
  %19 = load ptr, ptr %7, align 8
  %20 = load ptr, ptr %8, align 8
  call void @_ZN11JvmtiTagMap17iterate_over_heapE21jvmtiHeapObjectFilterP5KlassPF21jvmtiIterationControlllPlPvEPKv(ptr noundef nonnull align 8 dereferenceable(122) %17, i32 noundef %18, ptr noundef null, ptr noundef %19, ptr noundef %20)
  call void @_ZN10HandleMarkD1Ev(ptr noundef nonnull align 8 dereferenceable(56) %11) #9
  call void @_ZN9TraceTimeD1Ev(ptr noundef nonnull align 8 dereferenceable(56) %9) #9
  ret i32 0
}