; Function Attrs: mustprogress nounwind uwtable
define hidden noundef i32 @_ZN8JvmtiEnv15IterateOverHeapE21jvmtiHeapObjectFilterPF21jvmtiIterationControlllPlPvEPKv(ptr noundef nonnull align 8 dereferenceable(460) %0, i32 noundef %1, ptr noundef %2, ptr noundef %3) local_unnamed_addr #0 align 2 {
  %5 = alloca %class.TraceTime, align 8
  %6 = alloca %class.HandleMark, align 8
  %7 = load volatile ptr, ptr getelementptr inbounds (i8, ptr @_ZN16LogTagSetMappingILN6LogTag4typeE69ELS1_98ELS1_0ELS1_0ELS1_0ELS1_0EE7_tagsetE, i64 56), align 8
  %.not = icmp eq ptr %7, null
  %8 = select i1 %.not, ptr null, ptr @_ZN7LogImplILN6LogTag4typeE69ELS1_98ELS1_0ELS1_0ELS1_0ELS1_0EE5writeILN8LogLevel4typeE2EEEvPKcz
  call void @_ZN9TraceTimeC1EPKcPFvS1_zE(ptr noundef nonnull align 8 dereferenceable(56) %5, ptr noundef nonnull @.str.9, ptr noundef %8) #17
  %9 = call align 8 ptr @llvm.threadlocal.address.p0(ptr align 8 @_ZN6Thread12_thr_currentE)
  %10 = load ptr, ptr %9, align 8
  call void @_ZN10HandleMark10initializeEP6Thread(ptr noundef nonnull align 8 dereferenceable(56) %6, ptr noundef %10) #17
  %11 = call noundef ptr @_ZN11JvmtiTagMap11tag_map_forEP8JvmtiEnv(ptr noundef nonnull %0) #17
  call void @_ZN11JvmtiTagMap17iterate_over_heapE21jvmtiHeapObjectFilterP5KlassPF21jvmtiIterationControlllPlPvEPKv(ptr noundef nonnull align 8 dereferenceable(122) %11, i32 noundef %1, ptr noundef null, ptr noundef %2, ptr noundef %3) #17
  call void @_ZN10HandleMarkD1Ev(ptr noundef nonnull align 8 dereferenceable(56) %6) #17
  call void @_ZN9TraceTimeD1Ev(ptr noundef nonnull align 8 dereferenceable(56) %5) #17
  ret i32 0
}